(ipyGSimulation
pyGSimulation
p1
(dp2
S'reactions'
p3
(lp4
(ipyGReaction
pyGR_CsC2HpR5StCsR6
p5
(dp6
ba(ipyGReaction
pyGR_CsC2HtCsR5H
p7
(dp8
ba(ipyGReaction
pyGR_CsC2HtCsm
p9
(dp10
ba(ipyGReaction
pyGR_CsR5BtCsR5S
p11
(dp12
ba(ipyGReaction
pyGR_CsR5HpC2HtCsR6m
p13
(dp14
ba(ipyGReaction
pyGR_CsR5HpR5StCsR6
p15
(dp16
ba(ipyGReaction
pyGR_CsR5HpR5tCsR6R5H
p17
(dp18
ba(ipyGReaction
pyGR_CsR5HpR6tCsR6R6
p19
(dp20
ba(ipyGReaction
pyGR_CsR5HtCsC2H
p21
(dp22
ba(ipyGReaction
pyGR_CsR5HtCsR5
p23
(dp24
ba(ipyGReaction
pyGR_CsR5HtCsm
p25
(dp26
ba(ipyGReaction
pyGR_CsR5HtR5HCs
p27
(dp28
ba(ipyGReaction
pyGR_CsR5R6mtCsR6mR5E
p29
(dp30
ba(ipyGReaction
pyGR_CsR5R6mtCsR6mR5EI
p31
(dp32
ba(ipyGReaction
pyGR_CsR5R6mtCsR6mR5I
p33
(dp34
ba(ipyGReaction
pyGR_CsR5R6mtCsR6mR5IE
p35
(dp36
ba(ipyGReaction
pyGR_CsR5mpR5tCsR6
p37
(dp38
ba(ipyGReaction
pyGR_CsR5mtCsR5
p39
(dp40
ba(ipyGReaction
pyGR_CsR5mtCsR6
p41
(dp42
ba(ipyGReaction
pyGR_CsR5mtCsR6R5H
p43
(dp44
ba(ipyGReaction
pyGR_CsR5tCsR5H
p45
(dp46
ba(ipyGReaction
pyGR_CsR5tCsR5m
p47
(dp48
ba(ipyGReaction
pyGR_CsR6BtCsR6S
p49
(dp50
ba(ipyGReaction
pyGR_CsR6R5HpC2HtCsR6mpR5
p51
(dp52
ba(ipyGReaction
pyGR_CsR6R5HpR5R6tCsR5SR6pR5
p53
(dp54
ba(ipyGReaction
pyGR_CsR6R5HpR5StCsR6pR5
p55
(dp56
ba(ipyGReaction
pyGR_CsR6R5HpR5tCsR5HR6pR5
p57
(dp58
ba(ipyGReaction
pyGR_CsR6R5HpR6tCsR6R6pR5
p59
(dp60
ba(ipyGReaction
pyGR_CsR6R5HtCsC2HpR5
p61
(dp62
ba(ipyGReaction
pyGR_CsR6R5HtCsR5HpR5
p63
(dp64
ba(ipyGReaction
pyGR_CsR6R5HtCsmpR5
p65
(dp66
ba(ipyGReaction
pyGR_CsR6mtCsC2HpC2H
p67
(dp68
ba(ipyGReaction
pyGR_CsR6mtCsR5HpC2H
p69
(dp70
ba(ipyGReaction
pyGR_CsR6mtCsmpC2H
p71
(dp72
ba(ipyGReaction
pyGR_CsmpC2HtCsR6m
p73
(dp74
ba(ipyGReaction
pyGR_CsmpR5StCsR6
p75
(dp76
ba(ipyGReaction
pyGR_CsmpR5tCsR6R5H
p77
(dp78
ba(ipyGReaction
pyGR_CsmtCs
p79
(dp80
ba(ipyGReaction
pyGR_CsmtCsC2H
p81
(dp82
ba(ipyGReaction
pyGR_CsmtCsC2H3
p83
(dp84
ba(ipyGReaction
pyGR_CsmtCsR5H
p85
(dp86
ba(ipyGReaction
pyGR_CsmtCsR6
p87
(dp88
ba(ipyGReaction
pyGR_CstCsm
p89
(dp90
basS'siteCounts'
p91
(lp92
(dp93
S'ac'
p94
I0
sS'bay6'
p95
I0
sS'zz5'
p96
I0
sS'ac5'
p97
I0
sS'fe5'
p98
I0
sS'fe'
p99
I6
sS'zz'
p100
I6
sS'bay5l'
p101
I0
sS'bay6l'
p102
I0
sS'other'
p103
I0
sS'bay5'
p104
I0
sa(dp105
g94
I0
sg95
I0
sg96
I0
sg98
I0
sg99
I6
sg100
I6
sg103
I0
sg104
I0
sg97
I0
sg101
I0
sg102
I0
sa(dp106
g94
I0
sg95
I0
sg96
I0
sg98
I0
sg99
I6
sg100
I6
sg103
I0
sg104
I0
sg97
I0
sg101
I0
sg102
I0
sa(dp107
g94
I0
sg95
I0
sg96
I0
sg98
I0
sg99
I6
sg100
I6
sg103
I0
sg104
I0
sg97
I0
sg101
I0
sg102
I0
sa(dp108
g94
I0
sg95
I0
sg96
I0
sg98
I0
sg99
I6
sg100
I6
sg103
I0
sg104
I0
sg97
I0
sg101
I0
sg102
I0
sa(dp109
g94
I0
sg95
I0
sg96
I0
sg98
I0
sg99
I6
sg100
I6
sg103
I0
sg104
I0
sg97
I0
sg101
I0
sg102
I0
sa(dp110
g94
I0
sg95
I0
sg96
I2
sg98
I1
sg99
I4
sg100
I5
sg103
I0
sg104
I0
sg97
I0
sg101
I0
sg102
I0
sa(dp111
g94
I0
sg95
I0
sg96
I0
sg98
I0
sg99
I6
sg100
I6
sg103
I0
sg104
I0
sg97
I0
sg101
I0
sg102
I0
sa(dp112
g94
I0
sg95
I0
sg96
I0
sg98
I0
sg99
I6
sg100
I6
sg103
I0
sg104
I0
sg97
I0
sg101
I0
sg102
I0
sasS'name'
p113
S'pc7_BC_1500_sim007'
p114
sS'reactApplyDict'
p115
NsS'nC'
p116
(lp117
I24
aI24
aI24
aI24
aI24
aI24
aI26
aI24
aI24
asS'randState'
p118
(I3
(L2209797851L
L1310782419L
L3119086015L
L1729616049L
L3847713558L
L3139771108L
L2455593149L
L3244754123L
L3577021632L
L1913712266L
L737322571L
L3615952240L
L18424935L
L1596446038L
L916716787L
L2212648123L
L769310697L
L3313257811L
L3293819628L
L3627437201L
L36460796L
L2846190702L
L3878573405L
L2747625764L
L1428796091L
L1628432771L
L2260628874L
L1519186401L
L1063032541L
L1709885350L
L2738772443L
L1979201122L
L114541802L
L2883602358L
L4077737636L
L173898411L
L2342798504L
L2450926409L
L2232824625L
L4033330503L
L2343616686L
L1515570958L
L4051615260L
L3522546727L
L533417299L
L3759121372L
L696316160L
L2870856616L
L3323407354L
L2866088407L
L3692585413L
L843123312L
L2332531573L
L405676999L
L2415026264L
L4280820917L
L2774053132L
L4108276368L
L1219140474L
L903806648L
L3377497524L
L108303057L
L4102665952L
L2550424930L
L2100374658L
L3266874912L
L4077700395L
L2986480159L
L139009351L
L3041653074L
L3839964247L
L4199433129L
L1936388353L
L1838224327L
L2781758059L
L4239229206L
L856134791L
L861511663L
L581911872L
L2786597277L
L161930731L
L445774403L
L2395212803L
L3311681945L
L3758626802L
L925604840L
L517910525L
L1064137318L
L695871777L
L3016363843L
L2805185051L
L1230244323L
L2835894583L
L290837395L
L1816834323L
L3421863065L
L3594521870L
L2677875623L
L4256153362L
L1405132945L
L791242287L
L766814324L
L1464935610L
L2427611059L
L3944445252L
L1276868917L
L1051991688L
L3108471098L
L2375801108L
L130419865L
L2775849674L
L3718610980L
L2752757474L
L2555610261L
L731605625L
L4283257435L
L597342503L
L94149598L
L1947300720L
L3674159161L
L3642772569L
L171502344L
L3062579376L
L1893076807L
L3467331993L
L1938238711L
L1173227143L
L4225576996L
L2389174523L
L1254780947L
L32373735L
L654097312L
L3633648030L
L1765314267L
L1033437443L
L2404206575L
L3142312706L
L346022565L
L3757977821L
L3975284955L
L172054339L
L141173632L
L3294911448L
L3847655497L
L3128512066L
L3166827120L
L2909018246L
L1745154100L
L2581131425L
L3032815063L
L4171776785L
L1561944867L
L1736557639L
L4280846812L
L3336183825L
L3773651363L
L1187013754L
L3337926801L
L557553004L
L2492430200L
L3031824664L
L2471699653L
L2044248862L
L2979841546L
L1197296108L
L2204504526L
L2891924611L
L3630721777L
L2235864090L
L2407183217L
L4267192286L
L3219204226L
L1467462895L
L1362378104L
L213283131L
L1644127254L
L4292149487L
L1518053450L
L2625923248L
L4079228224L
L84463266L
L3848195982L
L1458295978L
L1774367083L
L1811631071L
L781530395L
L3367450532L
L410798176L
L312908111L
L525593586L
L280418179L
L2123030836L
L4211165599L
L1461861714L
L3626322618L
L2710631310L
L2434646958L
L1656130410L
L1378799180L
L2779553398L
L1758697796L
L363954851L
L4195654717L
L4142148649L
L3556992360L
L1445991129L
L2712977377L
L2623222904L
L3995417036L
L3115788929L
L1699325857L
L509693981L
L917411528L
L600406579L
L2061828895L
L1876262424L
L3795137002L
L3270017248L
L1347667415L
L2479809997L
L2036299856L
L1042672787L
L994669106L
L433972083L
L2502275038L
L2635213551L
L1402784491L
L1116441945L
L2581750609L
L1873499699L
L744207079L
L2742614651L
L2608503629L
L2626117734L
L1428853800L
L28090190L
L3696488853L
L930414318L
L4047203678L
L1034926196L
L202997008L
L2388538012L
L1475336311L
L1795307474L
L3168055834L
L2131291408L
L3231249933L
L3728385138L
L596052658L
L3596044582L
L1203065752L
L1748127939L
L3932865294L
L149286079L
L1953265224L
L719931609L
L2888978460L
L3142736816L
L3705800512L
L3523583006L
L837382245L
L3599650457L
L2286439512L
L4018165742L
L3724674978L
L1336004804L
L462879669L
L1727727622L
L531401034L
L212853857L
L1136148421L
L238676462L
L3349901886L
L2915514296L
L287788277L
L3864137436L
L2932501431L
L882058814L
L6462233L
L1701589250L
L670526219L
L2293543260L
L3754637968L
L4233368352L
L745686586L
L3991380204L
L278647854L
L2766957114L
L1734452913L
L2073953046L
L919618676L
L2632861443L
L3416910172L
L3581023649L
L1721790903L
L3904737182L
L3116750505L
L2114602060L
L1399141197L
L2668710826L
L2708969026L
L2009997944L
L3043948900L
L2857570347L
L1504356700L
L3476754486L
L337605601L
L911541056L
L4293815931L
L965782150L
L1795609552L
L298342213L
L650242036L
L3453531348L
L2748987729L
L2269603523L
L502899805L
L2625258973L
L1852894249L
L660403865L
L3100750820L
L978021276L
L3316199148L
L4145513117L
L1788569554L
L3439492090L
L3283779360L
L3044239256L
L160181619L
L3084803175L
L2577591468L
L1376054904L
L2092719290L
L2359281501L
L3297694246L
L1842825422L
L1015770166L
L1246673105L
L2184121317L
L1431854310L
L3554900576L
L431607805L
L1831438130L
L4227227974L
L3051300990L
L2757854026L
L1255948428L
L2055851598L
L3761123598L
L1196946284L
L124437989L
L862640847L
L1975991680L
L3371472232L
L3981850462L
L2639877961L
L1184932315L
L3046627654L
L2358835955L
L796076182L
L1724397586L
L600760907L
L2731800228L
L1040790674L
L1663004970L
L4110944865L
L3176958951L
L3197997473L
L3764669238L
L648306548L
L3028635007L
L1326689237L
L3099174219L
L1406987327L
L4169621564L
L1077284560L
L2516588097L
L2471331236L
L3175561268L
L217180289L
L779878243L
L1879375519L
L1828672530L
L3941218980L
L399632375L
L1004177505L
L1473602859L
L1904936758L
L1900322626L
L1544744567L
L3189862981L
L58354446L
L2834805588L
L2219429266L
L2405529016L
L1179509839L
L4010806002L
L540066322L
L4058066641L
L2591914617L
L2604737954L
L512638304L
L655555105L
L2179475744L
L3877613125L
L3960129923L
L3514780936L
L124580710L
L1449363681L
L2013889872L
L1215106344L
L4197253243L
L1771495503L
L630786633L
L900482710L
L1973567676L
L1003676130L
L392009020L
L929303200L
L307990821L
L733333158L
L4216766864L
L2751800975L
L3091636639L
L1334769440L
L2463922810L
L3388610742L
L762363895L
L224523551L
L3653083983L
L29571225L
L599315482L
L4206135812L
L793042001L
L1301837150L
L540221098L
L3673904522L
L1535115606L
L3126969041L
L188941058L
L4131222413L
L467618210L
L3433545803L
L1667939342L
L3286581763L
L3426271201L
L4134542474L
L276670496L
L2094650693L
L3323406832L
L2146918767L
L1031272631L
L613070666L
L3181618072L
L562645249L
L2224965962L
L3334254493L
L308090498L
L614051428L
L2859866281L
L2195356933L
L1528160606L
L1665293824L
L3560386823L
L1653238791L
L2725687622L
L2222859255L
L1219747448L
L2762083723L
L4064948773L
L3751507603L
L1521076257L
L1526035386L
L1994271318L
L634479170L
L126809755L
L1304318434L
L227083616L
L3463927535L
L1085672862L
L59608601L
L3469172179L
L3610547909L
L686220939L
L2770248908L
L1064340784L
L2561249201L
L3958823323L
L328331370L
L513803273L
L4280021345L
L3710545529L
L3066618007L
L3163774037L
L144496269L
L3103743181L
L1449446697L
L3814810562L
L284014431L
L3179178546L
L218875862L
L3770807197L
L3474860314L
L3787757823L
L1433030609L
L1131933L
L4205876781L
L3299645145L
L1827636727L
L3286057352L
L709834818L
L2264172117L
L1495718922L
L3772531191L
L1805614860L
L2228073479L
L3516977410L
L656116110L
L2175707694L
L540089995L
L2360458992L
L3180823070L
L275972642L
L334044058L
L2622249266L
L2638122058L
L1496683466L
L1280312640L
L718933516L
L1185455907L
L3399448045L
L1225333306L
L3862527484L
L3917756875L
L1175269666L
L2032851053L
L2284216277L
L333256132L
L1254954251L
L3394290506L
L2793673908L
L4107471281L
L3714584622L
L2652656726L
L3049257932L
L405616044L
L2858270748L
L2307569624L
L2160637854L
L1985096318L
L2943306173L
L3827956010L
L3726200833L
L3803601849L
L1648722156L
L1913238844L
L177235316L
L974080905L
L3599530103L
L2194255292L
L504324636L
L1234932344L
L3153476750L
L4159951556L
L1044841595L
L2594661005L
L4107966045L
L2214358026L
L1144592615L
L81000664L
L701228785L
L1774651308L
L1033723981L
L92419257L
L318046185L
L2811172968L
L2718056043L
L638283309L
L2334846417L
L1444830275L
L3291925066L
L3995904012L
L829773945L
L3208331298L
L3341973591L
L2586768678L
L3109668288L
L3713918033L
L3171783699L
L3359880185L
L1714687774L
L692911729L
L2576318252L
L1390186656L
L1833519037L
L2874524020L
L3460414965L
L750244811L
L1042970649L
L1287970903L
L1600266623L
L1324127159L
L2085884600L
L1826115555L
L1695027055L
L1110468416L
L2345100366L
L464296305L
L1086661894L
L2891767629L
L1889238492L
L836501391L
L1443901550L
L4204111709L
L1381984794L
L1249215042L
L4121858473L
L96740386L
L1973019081L
L3581678156L
L2034987407L
L3211712661L
L1320598276L
L935579968L
L208L
tNtp119
sS't_env'
p120
(lp121
I0
asS'environments'
p122
(lp123
(ipyGEnvironment
pyGEnvironment
p124
(dp125
S'pressure'
p126
I101325
sS'temperature'
p127
I1500
sS'moleFrac'
p128
(dp129
S'H2'
p130
F0.10000000000000001
sS'H'
F0.0001
sS'CH3'
p131
F0
sS'C2H2'
p132
F0.10000000000000001
ssbasS'reactionsApplied'
p133
(lp134
(NNtp135
a(I1
S'CstCsm'
p136
tp137
a(I2
S'CsmtCs'
p138
tp139
a(I1
g136
tp140
a(I2
g138
tp141
a(I1
g136
tp142
a(I3
S'CsmtCsR5H'
p143
tp144
a(I8
S'CsR5HtCsC2H'
p145
tp146
a(I1
g136
tp147
asS'nR6'
p148
(lp149
I7
aI7
aI7
aI7
aI7
aI7
aI7
aI7
aI7
asS'time'
p150
(lp151
I0
acnumpy.core.multiarray
scalar
p152
(cnumpy
dtype
p153
(S'f8'
I0
I1
tRp154
(I3
S'<'
NNNI-1
I-1
I0
tbS'\x0fh\xb0{\t\x1af?'
tRp155
ag152
(g154
S'~\xee\xb4V\xfb\x1ef?'
tRp156
ag152
(g154
S'\xe3\x8f\x13vOJp?'
tRp157
ag152
(g154
S'Y\x9d\xb6\x86\x9dKp?'
tRp158
ag152
(g154
S'\x94\x8a|\xb6\xdf\xb7s?'
tRp159
ag152
(g154
S'\xb1*\x17\xa3\xe2\xb7s?'
tRp160
ag152
(g154
S'\xb0\x98\xbdz\xdc\xf5s?'
tRp161
ag152
(g154
S'\xc2\x89W\xf2n\x12u?'
tRp162
asS'networks'
p163
(lp164
(ipyGNetwork
pyGNetwork
p165
(dp166
S'isPlanar'
p167
I1
sS'cyclic'
p168
I0
sg116
I24
sS'lastOpt'
p169
I0
sS'edge'
p170
(ipyGEdge
pyGEdge
p171
(dp172
S'length'
p173
I18
sS'str'
p174
ccopy_reg
_reconstructor
p175
(cpyGEdge
pyGCircList
p176
c__builtin__
list
p177
(lp178
S'A1H'
p179
aS'S1'
p180
aS'A1H'
p181
aS'A1H'
p182
ag180
aS'A1H'
p183
aS'A1H'
p184
ag180
aS'A1H'
p185
aS'A1H'
p186
ag180
aS'A1-'
p187
aS'A1C2H'
p188
ag180
aS'A1H'
p189
aS'A1H'
p190
ag180
aS'A1H'
p191
atRp192
sS'directions'
p193
g175
(g176
g177
(lp194
I-1
aI0
aI1
aI-1
aI0
aI1
aI-1
aI0
aI1
aI-1
aI0
aI1
aI-1
aI0
aI1
aI-1
aI0
aI1
atRp195
sS'idStrings'
p196
g175
(g176
g177
(lp197
S'A1H_S1A1HA1HS1A1H_A1HS1A1HA1H'
p198
aS''
aS'A1H_S1A1HA1HS1A1H_A1HS1A1HA1H'
p199
aS'A1H_S1A1HA1HS1A1H_A1HS1A1HA1H'
p200
aS''
aS'A1H_S1A1HA1HS1A1H_A1HS1A1HA1H'
p201
aS'A1H_S1A1HA1HS1A1-_A1HS1A1HA1H'
p202
aS''
aS'A1H_S1A1HA1HS1A1H_A1HS1A1-A1C2H'
p203
aS'A1H_S1A1-A1C2HS1A1H_A1HS1A1HA1H'
p204
aS''
aS'A1-_S1A1HA1HS1A1H_A1C2HS1A1HA1H'
p205
aS'A1C2H_S1A1HA1HS1A1H_A1-S1A1HA1H'
p206
aS''
aS'A1H_S1A1C2HA1-S1A1H_A1HS1A1HA1H'
p207
aS'A1H_S1A1HA1HS1A1H_A1HS1A1C2HA1-'
p208
aS''
aS'A1H_S1A1HA1HS1A1C2H_A1HS1A1HA1H'
p209
atRp210
sS'nodes'
p211
g175
(g176
g177
(lp212
I7
aI5
aI3
aI1
aI0
aI23
aI22
aI16
aI18
aI19
aI17
aI20
aI21
aI12
aI13
aI11
aI8
aI9
atRp213
sS'actives'
p214
g175
(g176
g177
(lp215
I0
aI2
aI3
aI5
aI6
aI8
aI9
aI11
aI12
aI14
aI15
aI17
atRp216
sbsS'cyclicBoundary'
p217
(lp218
F-inf
aFinf
asg211
(lp219
(ipyGNode
pyGNode
p220
(dp221
S'type'
p222
g180
sS'cns'
p223
(lp224
I1
aI2
aI23
asS'ncn'
p225
S''
sS'pos'
p226
cnumpy.core.multiarray
_reconstruct
p227
(cnumpy
ndarray
p228
(I0
tS'b'
tRp229
(I1
(L3L
tg154
I00
S'\x00\x00\x00\x00\x00\x00\x00\x00\xb8\x1e\x85\xebQ\xb8\xe6?\x00\x00\x00\x00\x00\x00\x00\x00'
tbsba(ipyGNode
pyGNode
p230
(dp231
g222
S'A1'
p232
sg223
(lp233
I0
aI3
asg225
S'H'
sg226
g227
(g228
(I0
tS'b'
tRp234
(I1
(L3L
tg154
I00
S'\x00\x00\x00\x00\x00\x00\x00\x00\xb8\x1e\x85\xebQ\xb8\xe6\xbf\x00\x00\x00\x00\x00\x00\x00\x00'
tbsba(ipyGNode
pyGNode
p235
(dp236
g222
g180
sg223
(lp237
I0
aI4
aI14
asg225
S''
sg226
g227
(g228
(I0
tS'b'
tRp238
(I1
(L3L
tg154
I00
S'1,S\xb4\x14\xad\xf3?\xb8\x1e\x85\xebQ\xb8\xf6?\x00\x00\x00\x00\x00\x00\x00\x00'
tbsba(ipyGNode
pyGNode
p239
(dp240
g222
g232
sg223
(lp241
I1
aI5
asg225
S'H'
sg226
g227
(g228
(I0
tS'b'
tRp242
(I1
(L3L
tg154
I00
S'1,S\xb4\x14\xad\xf3?\xb8\x1e\x85\xebQ\xb8\xf6\xbf\x00\x00\x00\x00\x00\x00\x00\x00'
tbsba(ipyGNode
pyGNode
p243
(dp244
g222
g180
sg223
(lp245
I2
aI5
aI6
asg225
S''
sg226
g227
(g228
(I0
tS'b'
tRp246
(I1
(L3L
tg154
I00
S'1,S\xb4\x14\xad\x03@\xb9\x1e\x85\xebQ\xb8\xe6?\x00\x00\x00\x00\x00\x00\x00\x00'
tbsba(ipyGNode
pyGNode
p247
(dp248
g222
g180
sg223
(lp249
I3
aI4
aI7
asg225
S''
sg226
g227
(g228
(I0
tS'b'
tRp250
(I1
(L3L
tg154
I00
S'1,S\xb4\x14\xad\x03@\xb9\x1e\x85\xebQ\xb8\xe6\xbf\x00\x00\x00\x00\x00\x00\x00\x00'
tbsba(ipyGNode
pyGNode
p251
(dp252
g222
g180
sg223
(lp253
I4
aI8
aI10
asg225
S''
sg226
g227
(g228
(I0
tS'b'
tRp254
(I1
(L3L
tg154
I00
S'J\xc2|\x0e\x9f\x83\r@\xb8\x1e\x85\xebQ\xb8\xf6?\x00\x00\x00\x00\x00\x00\x00\x00'
tbsba(ipyGNode
pyGNode
p255
(dp256
g222
g232
sg223
(lp257
I5
aI9
asg225
S'H'
sg226
g227
(g228
(I0
tS'b'
tRp258
(I1
(L3L
tg154
I00
S'J\xc2|\x0e\x9f\x83\r@\xb8\x1e\x85\xebQ\xb8\xf6\xbf\x00\x00\x00\x00\x00\x00\x00\x00'
tbsba(ipyGNode
pyGNode
p259
(dp260
g222
g180
sg223
(lp261
I6
aI9
aI11
asg225
S''
sg226
g227
(g228
(I0
tS'b'
tRp262
(I1
(L3L
tg154
I00
S'1,S\xb4\x14\xad\x13@\xb9\x1e\x85\xebQ\xb8\xe6?\x00\x00\x00\x00\x00\x00\x00\x00'
tbsba(ipyGNode
pyGNode
p263
(dp264
g222
g232
sg223
(lp265
I7
aI8
asg225
S'H'
sg226
g227
(g228
(I0
tS'b'
tRp266
(I1
(L3L
tg154
I00
S'1,S\xb4\x14\xad\x13@\xb9\x1e\x85\xebQ\xb8\xe6\xbf\x00\x00\x00\x00\x00\x00\x00\x00'
tbsba(ipyGNode
pyGNode
p267
(dp268
g222
g180
sg223
(lp269
I6
aI12
aI15
asg225
S''
sg226
g227
(g228
(I0
tS'b'
tRp270
(I1
(L3L
tg154
I00
S'K\xc2|\x0e\x9f\x83\r@\xb8\x1e\x85\xebQ\xb8\x06@\x00\x00\x00\x00\x00\x00\x00\x00'
tbsba(ipyGNode
pyGNode
p271
(dp272
g222
g232
sg223
(lp273
I8
aI13
asg225
S'H'
sg226
g227
(g228
(I0
tS'b'
tRp274
(I1
(L3L
tg154
I00
S'=\xf7g\xe1Y\x98\x18@\xb8\x1e\x85\xebQ\xb8\xf6?\x00\x00\x00\x00\x00\x00\x00\x00'
tbsba(ipyGNode
pyGNode
p275
(dp276
g222
g180
sg223
(lp277
I10
aI13
aI21
asg225
S''
sg226
g227
(g228
(I0
tS'b'
tRp278
(I1
(L3L
tg154
I00
S'1,S\xb4\x14\xad\x13@ffffff\x0c@\x00\x00\x00\x00\x00\x00\x00\x00'
tbsba(ipyGNode
pyGNode
p279
(dp280
g222
g232
sg223
(lp281
I11
aI12
asg225
S'H'
sg226
g227
(g228
(I0
tS'b'
tRp282
(I1
(L3L
tg154
I00
S'=\xf7g\xe1Y\x98\x18@\xb8\x1e\x85\xebQ\xb8\x06@\x00\x00\x00\x00\x00\x00\x00\x00'
tbsba(ipyGNode
pyGNode
p283
(dp284
g222
g180
sg223
(lp285
I2
aI15
aI16
asg225
S''
sg226
g227
(g228
(I0
tS'b'
tRp286
(I1
(L3L
tg154
I00
S'2,S\xb4\x14\xad\xf3?\xb8\x1e\x85\xebQ\xb8\x06@\x00\x00\x00\x00\x00\x00\x00\x00'
tbsba(ipyGNode
pyGNode
p287
(dp288
g222
g180
sg223
(lp289
I10
aI14
aI17
asg225
S''
sg226
g227
(g228
(I0
tS'b'
tRp290
(I1
(L3L
tg154
I00
S'2,S\xb4\x14\xad\x03@ffffff\x0c@\x00\x00\x00\x00\x00\x00\x00\x00'
tbsba(ipyGNode
pyGNode
p291
(dp292
g222
g180
sg223
(lp293
I14
aI18
aI22
asg225
S''
sg226
g227
(g228
(I0
tS'b'
tRp294
(I1
(L3L
tg154
I00
S'\x00\x00\x00\x00\x00\x00\xb0<ffffff\x0c@\x00\x00\x00\x00\x00\x00\x00\x00'
tbsba(ipyGNode
pyGNode
p295
(dp296
g222
g180
sg223
(lp297
I15
aI19
aI20
asg225
S''
sg226
g227
(g228
(I0
tS'b'
tRp298
(I1
(L3L
tg154
I00
S'3,S\xb4\x14\xad\x03@\xe1z\x14\xaeG\xe1\x13@\x00\x00\x00\x00\x00\x00\x00\x00'
tbsba(ipyGNode
pyGNode
p299
(dp300
g222
g232
sg223
(lp301
I16
aI19
asg225
S'H'
sg226
g227
(g228
(I0
tS'b'
tRp302
(I1
(L3L
tg154
I00
S'\x00\x00\x00\x00\x00\x00\xb0<\xe1z\x14\xaeG\xe1\x13@\x00\x00\x00\x00\x00\x00\x00\x00'
tbsba(ipyGNode
pyGNode
p303
(dp304
g222
g232
sg223
(lp305
I17
aI18
asg225
S'H'
sg226
g227
(g228
(I0
tS'b'
tRp306
(I1
(L3L
tg154
I00
S'6,S\xb4\x14\xad\xf3?\xb9\x1e\x85\xebQ\xb8\x16@\x00\x00\x00\x00\x00\x00\x00\x00'
tbsba(ipyGNode
pyGNode
p307
(dp308
g222
g232
sg223
(lp309
I17
aI21
asg225
S'-'
sg226
g227
(g228
(I0
tS'b'
tRp310
(I1
(L3L
tg154
I00
S'L\xc2|\x0e\x9f\x83\r@\xb9\x1e\x85\xebQ\xb8\x16@\x00\x00\x00\x00\x00\x00\x00\x00'
tbsba(ipyGNode
pyGNode
p311
(dp312
g222
g232
sg223
(lp313
I12
aI20
asg225
S'C2H'
p314
sg226
g227
(g228
(I0
tS'b'
tRp315
(I1
(L3L
tg154
I00
S'2,S\xb4\x14\xad\x13@\xe0z\x14\xaeG\xe1\x13@\x00\x00\x00\x00\x00\x00\x00\x00'
tbsba(ipyGNode
pyGNode
p316
(dp317
g222
g232
sg223
(lp318
I16
aI23
asg225
S'H'
sg226
g227
(g228
(I0
tS'b'
tRp319
(I1
(L3L
tg154
I00
S'0,S\xb4\x14\xad\xf3\xbf\xb8\x1e\x85\xebQ\xb8\x06@\x00\x00\x00\x00\x00\x00\x00\x00'
tbsba(ipyGNode
pyGNode
p320
(dp321
g222
g232
sg223
(lp322
I0
aI22
asg225
S'H'
sg226
g227
(g228
(I0
tS'b'
tRp323
(I1
(L3L
tg154
I00
S'0,S\xb4\x14\xad\xf3\xbf\xb8\x1e\x85\xebQ\xb8\xf6?\x00\x00\x00\x00\x00\x00\x00\x00'
tbsbasg148
I7
sS'nR5'
p324
I0
sbasg324
(lp325
I0
aI0
aI0
aI0
aI0
aI0
aI1
aI0
aI0
asS'reactionRates'
p326
(lp327
g152
(g154
S'I\x8d\xdesG\xc8\xa6@'
tRp328
ag152
(g154
S'I\x8d\xdesG\xc8\xa6@'
tRp329
ag152
(g154
S'\xda\xf1\xfc\x9cW\x10\x87@'
tRp330
ag152
(g154
S'\x82\xa7\xe6nO\x1c\xaaA'
tRp331
aF80100
aF80100
aF24100
aF80100
aF13500
ag152
(g154
S'\xb5\xe9\xe2\x86\xfcc\x99@'
tRp332
aF2390
aF80100
ag152
(g154
S'\xa3\xcb\xe6,:\xb0\xf8@'
tRp333
ag152
(g154
S'\xa3\xcb\xe6,:\xb0\xf8@'
tRp334
ag152
(g154
S'\xa3\xcb\xe6,:\xb0\xf8@'
tRp335
ag152
(g154
S'\xa3\xcb\xe6,:\xb0\xf8@'
tRp336
aF28626.806714943152
ag152
(g154
S'\x84\xf5^bPo\x0bA'
tRp337
aF0
aF28626.806714943152
ag152
(g154
S't\x8c\x999\xe6\x00\xb9@'
tRp338
ag152
(g154
S'\x98\xf5\xb5\xab\x1b\x84\x86@'
tRp339
ag152
(g154
S'\x84\xfe\xd8\xaaS\xaf4B'
tRp340
aF6.2400000000000002
aF6.2400000000000002
aF6.2400000000000002
aF6.2400000000000002
aF6.2400000000000002
aF0.41999999999999998
aF6.2400000000000002
aF0.075399999999999995
ag152
(g154
S'^M\xc0\xe5\x8eB\xa5@'
tRp341
ag152
(g154
S'm\x1d\xbb\xc3 \x89\xcf@'
tRp342
ag152
(g154
S'\x9dZ&gF\x1c~@'
tRp343
ag152
(g154
S'\xab\xc2Bb\x91E#A'
tRp344
ag152
(g154
S'\xc1\xfc`\x16Vk\x1cA'
tRp345
aF28626.806714943152
ag152
(g154
S'\xa3\xcb\xe6,:\xb0\xf8@'
tRp346
ag152
(g154
S'z}\xf6jz\xe6\xf0@'
tRp347
aF554000
ag152
(g154
S'\xc1\xfc`\x16Vk\x1cA'
tRp348
ag152
(g154
S'\xfe\x99=:6\xfa8A'
tRp349
ag152
(g154
S'\xa4\xfa\xeaVd\xe4c@'
tRp350
asb.